; Function Attrs: nounwind sspstrong uwtable
define internal void @vfio_vmstate_change(ptr noundef %opaque, i1 noundef zeroext %running, i32 noundef %state) #2 {
entry:
  %_now.i.i = alloca %struct.timeval, align 8
  br i1 %running, label %if.end, label %if.else

if.else:                                          ; preds = %entry
  %call = tail call zeroext i1 @vfio_device_state_is_precopy(ptr noundef %opaque) #16
  %cmp = icmp eq i32 %state, 7
  %cmp1 = icmp eq i32 %state, 4
  %0 = or i1 %cmp, %cmp1
  %1 = and i1 %0, %call
  %cond = select i1 %1, i32 3, i32 1
  br label %if.end

if.end:                                           ; preds = %entry, %if.else
  %new_state.0 = phi i32 [ %cond, %if.else ], [ 2, %entry ]
  %call2 = tail call fastcc i32 @vfio_migration_set_state(ptr noundef %opaque, i32 noundef %new_state.0, i32 noundef 0)
  %tobool3.not = icmp eq i32 %call2, 0
  br i1 %tobool3.not, label %if.end11, label %if.then4

if.then4:                                         ; preds = %if.end
  %call5 = tail call ptr @migrate_get_current() #16
  %to_dst_file = getelementptr inbounds nuw i8, ptr %call5, i64 184
  %2 = load ptr, ptr %to_dst_file, align 8
  %tobool6.not = icmp eq ptr %2, null
  br i1 %tobool6.not, label %if.end11, label %if.then7

if.then7:                                         ; preds = %if.then4
  %call8 = tail call ptr @migrate_get_current() #16
  %to_dst_file9 = getelementptr inbounds nuw i8, ptr %call8, i64 184
  %3 = load ptr, ptr %to_dst_file9, align 8
  tail call void @qemu_file_set_error(ptr noundef %3, i32 noundef %call2) #16
  br label %if.end11

if.end11:                                         ; preds = %if.then4, %if.then7, %if.end
  %name = getelementptr inbounds nuw i8, ptr %opaque, i64 72
  %4 = load ptr, ptr %name, align 8
  %conv = zext i1 %running to i32
  %call13 = tail call ptr @qapi_enum_lookup(ptr noundef nonnull @RunState_lookup, i32 noundef %state) #16
  %switch.tableidx = add nsw i32 %new_state.0, -1
  %5 = sext i32 %switch.tableidx to i64
  %switch.gep = getelementptr inbounds [3 x ptr], ptr @switch.table.vfio_vmstate_change, i64 0, i64 %5
  %switch.load = load ptr, ptr %switch.gep, align 8
  call void @llvm.lifetime.start.p0(i64 16, ptr nonnull %_now.i.i)
  %6 = load i32, ptr @trace_events_enabled_count, align 4
  %tobool.i.i = icmp ne i32 %6, 0
  %7 = load i16, ptr @_TRACE_VFIO_VMSTATE_CHANGE_DSTATE, align 2
  %tobool4.i.i = icmp ne i16 %7, 0
  %or.cond.i.i = select i1 %tobool.i.i, i1 %tobool4.i.i, i1 false
  br i1 %or.cond.i.i, label %land.lhs.true5.i.i, label %trace_vfio_vmstate_change.exit

land.lhs.true5.i.i:                               ; preds = %if.end11
  %8 = load i32, ptr @qemu_loglevel, align 4
  %and.i.i.i = and i32 %8, 32768
  %cmp.i.not.i.i = icmp eq i32 %and.i.i.i, 0
  br i1 %cmp.i.not.i.i, label %trace_vfio_vmstate_change.exit, label %if.then.i.i

if.then.i.i:                                      ; preds = %land.lhs.true5.i.i
  %9 = load i8, ptr @message_with_timestamp, align 1
  %tobool7.i.i = trunc i8 %9 to i1
  br i1 %tobool7.i.i, label %if.then8.i.i, label %if.else.i.i

if.then8.i.i:                                     ; preds = %if.then.i.i
  %call9.i.i = call i32 @gettimeofday(ptr noundef nonnull %_now.i.i, ptr noundef null) #16
  %call10.i.i = tail call i32 @qemu_get_thread_id() #16
  %10 = load i64, ptr %_now.i.i, align 8
  %tv_usec.i.i = getelementptr inbounds nuw i8, ptr %_now.i.i, i64 8
  %11 = load i64, ptr %tv_usec.i.i, align 8
  tail call void (ptr, ...) @qemu_log(ptr noundef nonnull @.str.64, i32 noundef %call10.i.i, i64 noundef %10, i64 noundef %11, ptr noundef %4, i32 noundef range(i32 0, 2) %conv, ptr noundef %call13, ptr noundef nonnull %switch.load) #16
  br label %trace_vfio_vmstate_change.exit

if.else.i.i:                                      ; preds = %if.then.i.i
  tail call void (ptr, ...) @qemu_log(ptr noundef nonnull @.str.65, ptr noundef %4, i32 noundef range(i32 0, 2) %conv, ptr noundef %call13, ptr noundef nonnull %switch.load) #16
  br label %trace_vfio_vmstate_change.exit

trace_vfio_vmstate_change.exit:                   ; preds = %if.end11, %land.lhs.true5.i.i, %if.then8.i.i, %if.else.i.i
  call void @llvm.lifetime.end.p0(i64 16, ptr nonnull %_now.i.i)
  ret void
}